target datalayout = "e-m:e-p270:32:32-p271:32:32-p272:64:64-i64:64-i128:128-f80:128-n8:16:32:64-S128"
target triple = "x86_64-unknown-linux-gnu"

%struct.MachineClass = type { %struct.ObjectClass, ptr, ptr, ptr, ptr, ptr, ptr, ptr, ptr, ptr, i32, i32, i32, i32, i32, i8, i8, ptr, ptr, ptr, ptr, ptr, ptr, i64, ptr, i8, i8, i8, i32, i8, i8, i32, ptr, ptr, i8, i8, i8, i8, i8, i8, i8, i8, %struct.SMPCompatProps, ptr, ptr, ptr, ptr, ptr, ptr, ptr }
%struct.ObjectClass = type { ptr, ptr, [4 x ptr], [4 x ptr], ptr, ptr }
%struct.SMPCompatProps = type { i8, i8, i8, i8, i8, i8 }

@.str.199 = private unnamed_addr constant [26 x i8] c"../qemu/hw/core/machine.c\00", align 1
@.str.225 = private unnamed_addr constant [8 x i8] c"machine\00", align 1
@.str.226 = private unnamed_addr constant [98 x i8] c"/home/dtcxzyw/WorkSpace/Projects/compilers/llvm-opt-benchmark/bench/qemu/qemu/include/hw/boards.h\00", align 1
@__func__.MACHINE_CLASS = private unnamed_addr constant [14 x i8] c"MACHINE_CLASS\00", align 1
@.str.304 = private unnamed_addr constant [9 x i8] c"-machine\00", align 1
@.str.305 = private unnamed_addr constant [45 x i8] c"g_str_has_suffix(cname, TYPE_MACHINE_SUFFIX)\00", align 1
@__PRETTY_FUNCTION__.machine_class_base_init = private unnamed_addr constant [52 x i8] c"void machine_class_base_init(ObjectClass *, void *)\00", align 1

; Function Attrs: nounwind sspstrong uwtable
define internal ptr @MACHINE_CLASS(ptr noundef %klass) #0 {
entry:
  %klass.addr = alloca ptr, align 8
  store ptr %klass, ptr %klass.addr, align 8
  %0 = load ptr, ptr %klass.addr, align 8
  %call = call ptr @object_class_dynamic_cast_assert(ptr noundef %0, ptr noundef @.str.225, ptr noundef @.str.226, i32 noundef 23, ptr noundef @__func__.MACHINE_CLASS)
  ret ptr %call
}

; Function Attrs: nounwind sspstrong uwtable
define internal void @machine_class_base_init(ptr noundef %oc, ptr noundef %data) #0 {
entry:
  %oc.addr = alloca ptr, align 8
  %data.addr = alloca ptr, align 8
  %mc = alloca ptr, align 8
  %cname = alloca ptr, align 8
  store ptr %oc, ptr %oc.addr, align 8
  store ptr %data, ptr %data.addr, align 8
  %0 = load ptr, ptr %oc.addr, align 8
  %call = call ptr @MACHINE_CLASS(ptr noundef %0)
  store ptr %call, ptr %mc, align 8
  %1 = load ptr, ptr %mc, align 8
  %max_cpus = getelementptr inbounds %struct.MachineClass, ptr %1, i32 0, i32 12
  %2 = load i32, ptr %max_cpus, align 8
  %tobool = icmp ne i32 %2, 0
  br i1 %tobool, label %cond.true, label %cond.false

cond.true:                                        ; preds = %entry
  br label %cond.end

cond.false:                                       ; preds = %entry
  br label %cond.end

cond.end:                                         ; preds = %cond.false, %cond.true
  %cond = phi i32 [ %2, %cond.true ], [ 1, %cond.false ]
  %3 = load ptr, ptr %mc, align 8
  %max_cpus1 = getelementptr inbounds %struct.MachineClass, ptr %3, i32 0, i32 12
  store i32 %cond, ptr %max_cpus1, align 8
  %4 = load ptr, ptr %mc, align 8
  %min_cpus = getelementptr inbounds %struct.MachineClass, ptr %4, i32 0, i32 13
  %5 = load i32, ptr %min_cpus, align 4
  %tobool2 = icmp ne i32 %5, 0
  br i1 %tobool2, label %cond.true3, label %cond.false4

cond.true3:                                       ; preds = %cond.end
  br label %cond.end5

cond.false4:                                      ; preds = %cond.end
  br label %cond.end5

cond.end5:                                        ; preds = %cond.false4, %cond.true3
  %cond6 = phi i32 [ %5, %cond.true3 ], [ 1, %cond.false4 ]
  %6 = load ptr, ptr %mc, align 8
  %min_cpus7 = getelementptr inbounds %struct.MachineClass, ptr %6, i32 0, i32 13
  store i32 %cond6, ptr %min_cpus7, align 4
  %7 = load ptr, ptr %mc, align 8
  %default_cpus = getelementptr inbounds %struct.MachineClass, ptr %7, i32 0, i32 14
  %8 = load i32, ptr %default_cpus, align 8
  %tobool8 = icmp ne i32 %8, 0
  br i1 %tobool8, label %cond.true9, label %cond.false10

cond.true9:                                       ; preds = %cond.end5
  br label %cond.end11

cond.false10:                                     ; preds = %cond.end5
  br label %cond.end11

cond.end11:                                       ; preds = %cond.false10, %cond.true9
  %cond12 = phi i32 [ %8, %cond.true9 ], [ 1, %cond.false10 ]
  %9 = load ptr, ptr %mc, align 8
  %default_cpus13 = getelementptr inbounds %struct.MachineClass, ptr %9, i32 0, i32 14
  store i32 %cond12, ptr %default_cpus13, align 8
  %10 = load ptr, ptr %oc.addr, align 8
  %call14 = call zeroext i1 @object_class_is_abstract(ptr noundef %10)
  br i1 %call14, label %if.end22, label %if.then

if.then:                                          ; preds = %cond.end11
  %11 = load ptr, ptr %oc.addr, align 8
  %call15 = call ptr @object_class_get_name(ptr noundef %11)
  store ptr %call15, ptr %cname, align 8
  %12 = load ptr, ptr %cname, align 8
  %call16 = call i32 @g_str_has_suffix(ptr noundef %12, ptr noundef @.str.304)
  %tobool17 = icmp ne i32 %call16, 0
  br i1 %tobool17, label %if.then18, label %if.else

if.then18:                                        ; preds = %if.then
  br label %if.end

if.else:                                          ; preds = %if.then
  call void @__assert_fail(ptr noundef @.str.305, ptr noundef @.str.199, i32 noundef 1092, ptr noundef @__PRETTY_FUNCTION__.machine_class_base_init) #13
  unreachable

if.end:                                           ; preds = %if.then18
  %13 = load ptr, ptr %cname, align 8
  %14 = load ptr, ptr %cname, align 8
  %call19 = call i64 @strlen(ptr noundef %14) #14
  %sub = sub i64 %call19, 8
  %call20 = call noalias ptr @g_strndup(ptr noundef %13, i64 noundef %sub)
  %15 = load ptr, ptr %mc, align 8
  %name = getelementptr inbounds %struct.MachineClass, ptr %15, i32 0, i32 2
  store ptr %call20, ptr %name, align 8
  %call21 = call ptr @g_ptr_array_new()
  %16 = load ptr, ptr %mc, align 8
  %compat_props = getelementptr inbounds %struct.MachineClass, ptr %16, i32 0, i32 21
  store ptr %call21, ptr %compat_props, align 8
  br label %if.end22

if.end22:                                         ; preds = %if.end, %cond.end11
  ret void
}