; Function Attrs: nounwind sspstrong uwtable
define internal void @machine_class_base_init(ptr noundef %oc, ptr readnone captures(none) %data) #0 {
entry:
  %call.i = tail call ptr @object_class_dynamic_cast_assert(ptr noundef %oc, ptr noundef nonnull @.str.225, ptr noundef nonnull @.str.226, i32 noundef 23, ptr noundef nonnull @__func__.MACHINE_CLASS) #16
  %max_cpus = getelementptr inbounds nuw i8, ptr %call.i, i64 176
  %0 = load i32, ptr %max_cpus, align 8
  %. = tail call i32 @llvm.umax.i32(i32 %0, i32 1)
  store i32 %., ptr %max_cpus, align 8
  %min_cpus = getelementptr inbounds nuw i8, ptr %call.i, i64 180
  %1 = load i32, ptr %min_cpus, align 4
  %cond6 = tail call i32 @llvm.umax.i32(i32 %1, i32 1)
  store i32 %cond6, ptr %min_cpus, align 4
  %default_cpus = getelementptr inbounds nuw i8, ptr %call.i, i64 184
  %2 = load i32, ptr %default_cpus, align 8
  %cond12 = tail call i32 @llvm.umax.i32(i32 %2, i32 1)
  store i32 %cond12, ptr %default_cpus, align 8
  %call14 = tail call zeroext i1 @object_class_is_abstract(ptr noundef %oc) #16
  br i1 %call14, label %if.end22, label %if.then

if.then:                                          ; preds = %entry
  %call15 = tail call ptr @object_class_get_name(ptr noundef %oc) #16
  %call16 = tail call i32 @g_str_has_suffix(ptr noundef %call15, ptr noundef nonnull @.str.304) #16
  %tobool17.not = icmp eq i32 %call16, 0
  br i1 %tobool17.not, label %if.else, label %if.end

if.else:                                          ; preds = %if.then
  tail call void @__assert_fail(ptr noundef nonnull @.str.305, ptr noundef nonnull @.str.199, i32 noundef 1092, ptr noundef nonnull @__PRETTY_FUNCTION__.machine_class_base_init) #19
  unreachable

if.end:                                           ; preds = %if.then
  %call19 = tail call i64 @strlen(ptr noundef nonnull dereferenceable(1) %call15) #21
  %sub = add i64 %call19, -8
  %call20 = tail call noalias ptr @g_strndup(ptr noundef nonnull %call15, i64 noundef %sub) #16
  %name = getelementptr inbounds nuw i8, ptr %call.i, i64 104
  store ptr %call20, ptr %name, align 8
  %call21 = tail call ptr @g_ptr_array_new() #16
  %compat_props = getelementptr inbounds nuw i8, ptr %call.i, i64 224
  store ptr %call21, ptr %compat_props, align 8
  br label %if.end22

if.end22:                                         ; preds = %if.end, %entry
  ret void
}